target datalayout = "e-m:e-p270:32:32-p271:32:32-p272:64:64-i64:64-i128:128-f80:128-n8:16:32:64-S128"
target triple = "x86_64-unknown-linux-gnu"

%struct.grpc_arg = type { i32, ptr, %"union.(anonymous struct)::grpc_arg_value" }
%"union.(anonymous struct)::grpc_arg_value" = type { %"struct.(anonymous struct)::grpc_arg_value::grpc_arg_pointer" }
%"struct.(anonymous struct)::grpc_arg_value::grpc_arg_pointer" = type { ptr, ptr }

@.str = private unnamed_addr constant [137 x i8] c"generated/home/dtcxzyw/WorkSpace/Projects/compilers/llvm-opt-benchmark/bench/grpc/grpc/src/core/lib/security/context/security_context.cc\00", align 1
@.str.22 = private unnamed_addr constant [18 x i8] c"grpc.auth_context\00", align 1
@.str.23 = private unnamed_addr constant [27 x i8] c"Invalid type %d for arg %s\00", align 1

; Function Attrs: mustprogress uwtable
define noundef ptr @_Z26grpc_auth_context_from_argPK8grpc_arg(ptr noundef %arg) #4 {
entry:
  %retval = alloca ptr, align 8
  %arg.addr = alloca ptr, align 8
  store ptr %arg, ptr %arg.addr, align 8
  %0 = load ptr, ptr %arg.addr, align 8
  %key = getelementptr inbounds %struct.grpc_arg, ptr %0, i32 0, i32 1
  %1 = load ptr, ptr %key, align 8
  %call = call i32 @strcmp(ptr noundef %1, ptr noundef @.str.22) #17
  %cmp = icmp ne i32 %call, 0
  br i1 %cmp, label %if.then, label %if.end

if.then:                                          ; preds = %entry
  store ptr null, ptr %retval, align 8
  br label %return

if.end:                                           ; preds = %entry
  %2 = load ptr, ptr %arg.addr, align 8
  %type = getelementptr inbounds %struct.grpc_arg, ptr %2, i32 0, i32 0
  %3 = load i32, ptr %type, align 8
  %cmp1 = icmp ne i32 %3, 2
  br i1 %cmp1, label %if.then2, label %if.end4

if.then2:                                         ; preds = %if.end
  %4 = load ptr, ptr %arg.addr, align 8
  %type3 = getelementptr inbounds %struct.grpc_arg, ptr %4, i32 0, i32 0
  %5 = load i32, ptr %type3, align 8
  call void (ptr, i32, i32, ptr, ...) @gpr_log(ptr noundef @.str, i32 noundef 313, i32 noundef 2, ptr noundef @.str.23, i32 noundef %5, ptr noundef @.str.22)
  store ptr null, ptr %retval, align 8
  br label %return

if.end4:                                          ; preds = %if.end
  %6 = load ptr, ptr %arg.addr, align 8
  %value = getelementptr inbounds %struct.grpc_arg, ptr %6, i32 0, i32 2
  %p = getelementptr inbounds %"struct.(anonymous struct)::grpc_arg_value::grpc_arg_pointer", ptr %value, i32 0, i32 0
  %7 = load ptr, ptr %p, align 8
  store ptr %7, ptr %retval, align 8
  br label %return

return:                                           ; preds = %if.end4, %if.then2, %if.then
  %8 = load ptr, ptr %retval, align 8
  ret ptr %8
}