; Function Attrs: mustprogress uwtable
define noundef ptr @_Z26grpc_auth_context_from_argPK8grpc_arg(ptr nocapture noundef readonly %arg) local_unnamed_addr #4 {
entry:
  %key = getelementptr inbounds i8, ptr %arg, i64 8
  %0 = load ptr, ptr %key, align 8
  %call = tail call i32 @strcmp(ptr noundef nonnull dereferenceable(1) %0, ptr noundef nonnull dereferenceable(18) @.str.22) #25
  %cmp.not = icmp eq i32 %call, 0
  br i1 %cmp.not, label %if.end, label %return

if.end:                                           ; preds = %entry
  %1 = load i32, ptr %arg, align 8
  %cmp1.not = icmp eq i32 %1, 2
  br i1 %cmp1.not, label %if.end4, label %if.then2

if.then2:                                         ; preds = %if.end
  tail call void (ptr, i32, i32, ptr, ...) @gpr_log(ptr noundef nonnull @.str, i32 noundef 313, i32 noundef 2, ptr noundef nonnull @.str.23, i32 noundef %1, ptr noundef nonnull @.str.22)
  br label %return

if.end4:                                          ; preds = %if.end
  %value = getelementptr inbounds i8, ptr %arg, i64 16
  %2 = load ptr, ptr %value, align 8
  br label %return

return:                                           ; preds = %entry, %if.end4, %if.then2
  %retval.0 = phi ptr [ null, %if.then2 ], [ %2, %if.end4 ], [ null, %entry ]
  ret ptr %retval.0
}